; Function Attrs: nounwind uwtable
define range(i32 -1, 1) i32 @H5F_shared_block_write(ptr noundef %0, i32 noundef %1, i64 noundef %2, i64 noundef %3, ptr noundef %4) local_unnamed_addr #0 {
  %6 = getelementptr inbounds i8, ptr %0, i64 1552
  %7 = load i64, ptr %6, align 8
  %.not = icmp eq i64 %7, -1
  br i1 %.not, label %14, label %8

8:                                                ; preds = %5
  %9 = add i64 %3, %2
  %.not17 = icmp eq i64 %9, -1
  %.not18 = icmp ugt i64 %7, %9
  %or.cond = or i1 %.not17, %.not18
  br i1 %or.cond, label %14, label %10

10:                                               ; preds = %8
  %11 = load i64, ptr @H5E_IO_g, align 8
  %12 = load i64, ptr @H5E_BADRANGE_g, align 8
  %13 = tail call i32 (ptr, ptr, i32, i64, i64, ptr, ...) @H5E_printf_stack(ptr noundef nonnull @.str, ptr noundef nonnull @__func__.H5F_shared_block_write, i32 noundef 171, i64 noundef %11, i64 noundef %12, ptr noundef nonnull @.str.1) #2
  br label %23

14:                                               ; preds = %8, %5
  %15 = icmp eq i32 %1, 4
  %16 = select i1 %15, i32 3, i32 %1
  %17 = tail call i32 @H5PB_write(ptr noundef nonnull %0, i32 noundef %16, i64 noundef %2, i64 noundef %3, ptr noundef %4) #2
  %18 = icmp slt i32 %17, 0
  br i1 %18, label %19, label %23

19:                                               ; preds = %14
  %20 = load i64, ptr @H5E_IO_g, align 8
  %21 = load i64, ptr @H5E_WRITEERROR_g, align 8
  %22 = tail call i32 (ptr, ptr, i32, i64, i64, ptr, ...) @H5E_printf_stack(ptr noundef nonnull @.str, ptr noundef nonnull @__func__.H5F_shared_block_write, i32 noundef 178, i64 noundef %20, i64 noundef %21, ptr noundef nonnull @.str.3) #2
  br label %23

23:                                               ; preds = %14, %19, %10
  %.0 = phi i32 [ -1, %10 ], [ -1, %19 ], [ 0, %14 ]
  ret i32 %.0
}